target datalayout = "e-m:e-p270:32:32-p271:32:32-p272:64:64-i64:64-i128:128-f80:128-n8:16:32:64-S128"
target triple = "x86_64-pc-linux-gnu"

%struct.AVFormatContext = type { ptr, ptr, ptr, ptr, ptr, i32, i32, ptr, i32, ptr, i32, ptr, ptr, i64, i64, i64, i32, i32, i32, i64, i64, ptr, i32, i32, ptr, i32, i32, i32, i32, ptr, i64, i32, i32, %struct.AVIOInterruptCB, i32, i32, i32, i32, i64, i32, i32, i32, i32, i32, i32, i32, i32, i32, i32, i32, i32, i64, i32, i32, i32, i32, i32, ptr, ptr, ptr, ptr, i32, ptr, ptr, ptr, ptr, i32, ptr, ptr, i64, ptr, ptr, ptr, i64 }
%struct.AVIOInterruptCB = type { ptr, ptr }
%struct.AVIOContext = type { ptr, ptr, i32, ptr, ptr, ptr, ptr, ptr, ptr, i64, i32, i32, i32, i32, i32, i64, ptr, ptr, ptr, ptr, i32, i32, ptr, ptr, ptr, i32, ptr, i64, i64 }
%struct.AVStream = type { ptr, i32, i32, ptr, ptr, %struct.AVRational, i64, i64, i64, i32, i32, %struct.AVRational, ptr, %struct.AVRational, %struct.AVPacket, i32, %struct.AVRational, i32 }
%struct.AVPacket = type { ptr, i64, i64, ptr, i32, i32, i32, ptr, i32, i64, i64, ptr, ptr, %struct.AVRational }
%struct.AVRational = type { i32, i32 }
%struct.AVCodecParameters = type { i32, i32, i32, ptr, i32, ptr, i32, i32, i64, i32, i32, i32, i32, i32, i32, %struct.AVRational, %struct.AVRational, i32, i32, i32, i32, i32, i32, i32, %struct.AVChannelLayout, i32, i32, i32, i32, i32, i32 }
%struct.AVChannelLayout = type { i32, i32, %union.anon, ptr }
%union.anon = type { i64 }
%struct.FilmstripDemuxContext = type { i32 }

@.str.3 = private unnamed_addr constant [24 x i8] c"magic number not found\0A\00", align 1
@.str.4 = private unnamed_addr constant [27 x i8] c"Unsupported packing method\00", align 1

; Function Attrs: nounwind uwtable
define internal i32 @read_header(ptr noundef %0) #0 {
  %2 = alloca i32, align 4
  %3 = alloca ptr, align 8
  %4 = alloca ptr, align 8
  %5 = alloca ptr, align 8
  %6 = alloca ptr, align 8
  %7 = alloca i32, align 4
  store ptr %0, ptr %3, align 8, !tbaa !4
  call void @llvm.lifetime.start.p0(i64 8, ptr %4) #4
  %8 = load ptr, ptr %3, align 8, !tbaa !4
  %9 = getelementptr inbounds nuw %struct.AVFormatContext, ptr %8, i32 0, i32 3
  %10 = load ptr, ptr %9, align 8, !tbaa !9
  store ptr %10, ptr %4, align 8, !tbaa !26
  call void @llvm.lifetime.start.p0(i64 8, ptr %5) #4
  %11 = load ptr, ptr %3, align 8, !tbaa !4
  %12 = getelementptr inbounds nuw %struct.AVFormatContext, ptr %11, i32 0, i32 4
  %13 = load ptr, ptr %12, align 8, !tbaa !28
  store ptr %13, ptr %5, align 8, !tbaa !29
  call void @llvm.lifetime.start.p0(i64 8, ptr %6) #4
  %14 = load ptr, ptr %3, align 8, !tbaa !4
  %15 = getelementptr inbounds nuw %struct.AVFormatContext, ptr %14, i32 0, i32 4
  %16 = load ptr, ptr %15, align 8, !tbaa !28
  %17 = getelementptr inbounds nuw %struct.AVIOContext, ptr %16, i32 0, i32 20
  %18 = load i32, ptr %17, align 8, !tbaa !30
  %19 = and i32 %18, 1
  %20 = icmp ne i32 %19, 0
  br i1 %20, label %22, label %21

21:                                               ; preds = %1
  store i32 -5, ptr %2, align 4
  store i32 1, ptr %7, align 4
  br label %105

22:                                               ; preds = %1
  %23 = load ptr, ptr %5, align 8, !tbaa !29
  %24 = load ptr, ptr %5, align 8, !tbaa !29
  %25 = call i64 @avio_size(ptr noundef %24)
  %26 = sub nsw i64 %25, 36
  %27 = call i64 @avio_seek(ptr noundef %23, i64 noundef %26, i32 noundef 0)
  %28 = load ptr, ptr %5, align 8, !tbaa !29
  %29 = call i32 @avio_rb32(ptr noundef %28)
  %30 = icmp ne i32 %29, 1382116964
  br i1 %30, label %31, label %33

31:                                               ; preds = %22
  %32 = load ptr, ptr %3, align 8, !tbaa !4
  call void (ptr, i32, ptr, ...) @av_log(ptr noundef %32, i32 noundef 16, ptr noundef @.str.3)
  store i32 -1094995529, ptr %2, align 4
  store i32 1, ptr %7, align 4
  br label %105

33:                                               ; preds = %22
  %34 = load ptr, ptr %3, align 8, !tbaa !4
  %35 = call ptr @avformat_new_stream(ptr noundef %34, ptr noundef null)
  store ptr %35, ptr %6, align 8, !tbaa !32
  %36 = load ptr, ptr %6, align 8, !tbaa !32
  %37 = icmp ne ptr %36, null
  br i1 %37, label %39, label %38

38:                                               ; preds = %33
  store i32 -12, ptr %2, align 4
  store i32 1, ptr %7, align 4
  br label %105

39:                                               ; preds = %33
  %40 = load ptr, ptr %5, align 8, !tbaa !29
  %41 = call i32 @avio_rb32(ptr noundef %40)
  %42 = zext i32 %41 to i64
  %43 = load ptr, ptr %6, align 8, !tbaa !32
  %44 = getelementptr inbounds nuw %struct.AVStream, ptr %43, i32 0, i32 8
  store i64 %42, ptr %44, align 8, !tbaa !34
  %45 = load ptr, ptr %5, align 8, !tbaa !29
  %46 = call i32 @avio_rb16(ptr noundef %45)
  %47 = icmp ne i32 %46, 0
  br i1 %47, label %48, label %50

48:                                               ; preds = %39
  %49 = load ptr, ptr %3, align 8, !tbaa !4
  call void (ptr, ptr, ...) @avpriv_request_sample(ptr noundef %49, ptr noundef @.str.4)
  store i32 -1163346256, ptr %2, align 4
  store i32 1, ptr %7, align 4
  br label %105

50:                                               ; preds = %39
  %51 = load ptr, ptr %5, align 8, !tbaa !29
  %52 = call i64 @avio_skip(ptr noundef %51, i64 noundef 2)
  %53 = load ptr, ptr %6, align 8, !tbaa !32
  %54 = getelementptr inbounds nuw %struct.AVStream, ptr %53, i32 0, i32 3
  %55 = load ptr, ptr %54, align 8, !tbaa !41
  %56 = getelementptr inbounds nuw %struct.AVCodecParameters, ptr %55, i32 0, i32 0
  store i32 0, ptr %56, align 8, !tbaa !42
  %57 = load ptr, ptr %6, align 8, !tbaa !32
  %58 = getelementptr inbounds nuw %struct.AVStream, ptr %57, i32 0, i32 3
  %59 = load ptr, ptr %58, align 8, !tbaa !41
  %60 = getelementptr inbounds nuw %struct.AVCodecParameters, ptr %59, i32 0, i32 1
  store i32 13, ptr %60, align 4, !tbaa !45
  %61 = load ptr, ptr %6, align 8, !tbaa !32
  %62 = getelementptr inbounds nuw %struct.AVStream, ptr %61, i32 0, i32 3
  %63 = load ptr, ptr %62, align 8, !tbaa !41
  %64 = getelementptr inbounds nuw %struct.AVCodecParameters, ptr %63, i32 0, i32 7
  store i32 26, ptr %64, align 4, !tbaa !46
  %65 = load ptr, ptr %6, align 8, !tbaa !32
  %66 = getelementptr inbounds nuw %struct.AVStream, ptr %65, i32 0, i32 3
  %67 = load ptr, ptr %66, align 8, !tbaa !41
  %68 = getelementptr inbounds nuw %struct.AVCodecParameters, ptr %67, i32 0, i32 2
  store i32 0, ptr %68, align 8, !tbaa !47
  %69 = load ptr, ptr %5, align 8, !tbaa !29
  %70 = call i32 @avio_rb16(ptr noundef %69)
  %71 = load ptr, ptr %6, align 8, !tbaa !32
  %72 = getelementptr inbounds nuw %struct.AVStream, ptr %71, i32 0, i32 3
  %73 = load ptr, ptr %72, align 8, !tbaa !41
  %74 = getelementptr inbounds nuw %struct.AVCodecParameters, ptr %73, i32 0, i32 13
  store i32 %70, ptr %74, align 8, !tbaa !48
  %75 = load ptr, ptr %5, align 8, !tbaa !29
  %76 = call i32 @avio_rb16(ptr noundef %75)
  %77 = load ptr, ptr %6, align 8, !tbaa !32
  %78 = getelementptr inbounds nuw %struct.AVStream, ptr %77, i32 0, i32 3
  %79 = load ptr, ptr %78, align 8, !tbaa !41
  %80 = getelementptr inbounds nuw %struct.AVCodecParameters, ptr %79, i32 0, i32 14
  store i32 %76, ptr %80, align 4, !tbaa !49
  %81 = load ptr, ptr %5, align 8, !tbaa !29
  %82 = call i32 @avio_rb16(ptr noundef %81)
  %83 = load ptr, ptr %4, align 8, !tbaa !26
  %84 = getelementptr inbounds nuw %struct.FilmstripDemuxContext, ptr %83, i32 0, i32 0
  store i32 %82, ptr %84, align 4, !tbaa !50
  %85 = load ptr, ptr %6, align 8, !tbaa !32
  %86 = getelementptr inbounds nuw %struct.AVStream, ptr %85, i32 0, i32 3
  %87 = load ptr, ptr %86, align 8, !tbaa !41
  %88 = getelementptr inbounds nuw %struct.AVCodecParameters, ptr %87, i32 0, i32 13
  %89 = load i32, ptr %88, align 8, !tbaa !48
  %90 = load ptr, ptr %6, align 8, !tbaa !32
  %91 = getelementptr inbounds nuw %struct.AVStream, ptr %90, i32 0, i32 3
  %92 = load ptr, ptr %91, align 8, !tbaa !41
  %93 = getelementptr inbounds nuw %struct.AVCodecParameters, ptr %92, i32 0, i32 14
  %94 = load i32, ptr %93, align 4, !tbaa !49
  %95 = load ptr, ptr %3, align 8, !tbaa !4
  %96 = call i32 @av_image_check_size(i32 noundef %89, i32 noundef %94, i32 noundef 0, ptr noundef %95)
  %97 = icmp slt i32 %96, 0
  br i1 %97, label %98, label %99

98:                                               ; preds = %50
  store i32 -1094995529, ptr %2, align 4
  store i32 1, ptr %7, align 4
  br label %105

99:                                               ; preds = %50
  %100 = load ptr, ptr %6, align 8, !tbaa !32
  %101 = load ptr, ptr %5, align 8, !tbaa !29
  %102 = call i32 @avio_rb16(ptr noundef %101)
  call void @avpriv_set_pts_info(ptr noundef %100, i32 noundef 64, i32 noundef 1, i32 noundef %102)
  %103 = load ptr, ptr %5, align 8, !tbaa !29
  %104 = call i64 @avio_seek(ptr noundef %103, i64 noundef 0, i32 noundef 0)
  store i32 0, ptr %2, align 4
  store i32 1, ptr %7, align 4
  br label %105

105:                                              ; preds = %99, %98, %48, %38, %31, %21
  call void @llvm.lifetime.end.p0(i64 8, ptr %6) #4
  call void @llvm.lifetime.end.p0(i64 8, ptr %5) #4
  call void @llvm.lifetime.end.p0(i64 8, ptr %4) #4
  %106 = load i32, ptr %2, align 4
  ret i32 %106
}