; Function Attrs: nounwind uwtable
define internal range(i32 -1163346256, 1) i32 @read_header(ptr noundef %0) #0 {
  %2 = getelementptr inbounds nuw i8, ptr %0, i64 24
  %3 = load ptr, ptr %2, align 8, !tbaa !4
  %4 = getelementptr inbounds nuw i8, ptr %0, i64 32
  %5 = load ptr, ptr %4, align 8, !tbaa !24
  %6 = getelementptr inbounds nuw i8, ptr %5, i64 144
  %7 = load i32, ptr %6, align 8, !tbaa !25
  %8 = and i32 %7, 1
  %.not = icmp eq i32 %8, 0
  br i1 %.not, label %47, label %9

9:                                                ; preds = %1
  %10 = tail call i64 @avio_size(ptr noundef nonnull %5) #3
  %11 = add nsw i64 %10, -36
  %12 = tail call i64 @avio_seek(ptr noundef nonnull %5, i64 noundef %11, i32 noundef 0) #3
  %13 = tail call i32 @avio_rb32(ptr noundef nonnull %5) #3
  %.not31 = icmp eq i32 %13, 1382116964
  br i1 %.not31, label %15, label %14

14:                                               ; preds = %9
  tail call void (ptr, i32, ptr, ...) @av_log(ptr noundef nonnull %0, i32 noundef 16, ptr noundef nonnull @.str.3) #3
  br label %47

15:                                               ; preds = %9
  %16 = tail call ptr @avformat_new_stream(ptr noundef nonnull %0, ptr noundef null) #3
  %.not32 = icmp eq ptr %16, null
  br i1 %.not32, label %47, label %17

17:                                               ; preds = %15
  %18 = tail call i32 @avio_rb32(ptr noundef nonnull %5) #3
  %19 = zext i32 %18 to i64
  %20 = getelementptr inbounds nuw i8, ptr %16, i64 56
  store i64 %19, ptr %20, align 8, !tbaa !27
  %21 = tail call i32 @avio_rb16(ptr noundef nonnull %5) #3
  %.not33 = icmp eq i32 %21, 0
  br i1 %.not33, label %23, label %22

22:                                               ; preds = %17
  tail call void (ptr, ptr, ...) @avpriv_request_sample(ptr noundef nonnull %0, ptr noundef nonnull @.str.4) #3
  br label %47

23:                                               ; preds = %17
  %24 = tail call i64 @avio_skip(ptr noundef nonnull %5, i64 noundef 2) #3
  %25 = getelementptr inbounds nuw i8, ptr %16, i64 16
  %26 = load ptr, ptr %25, align 8, !tbaa !34
  store i32 0, ptr %26, align 8, !tbaa !35
  %27 = getelementptr inbounds nuw i8, ptr %26, i64 4
  store i32 13, ptr %27, align 4, !tbaa !38
  %28 = getelementptr inbounds nuw i8, ptr %26, i64 44
  store i32 26, ptr %28, align 4, !tbaa !39
  %29 = getelementptr inbounds nuw i8, ptr %26, i64 8
  store i32 0, ptr %29, align 8, !tbaa !40
  %30 = tail call i32 @avio_rb16(ptr noundef nonnull %5) #3
  %31 = load ptr, ptr %25, align 8, !tbaa !34
  %32 = getelementptr inbounds nuw i8, ptr %31, i64 72
  store i32 %30, ptr %32, align 8, !tbaa !41
  %33 = tail call i32 @avio_rb16(ptr noundef nonnull %5) #3
  %34 = load ptr, ptr %25, align 8, !tbaa !34
  %35 = getelementptr inbounds nuw i8, ptr %34, i64 76
  store i32 %33, ptr %35, align 4, !tbaa !42
  %36 = tail call i32 @avio_rb16(ptr noundef nonnull %5) #3
  store i32 %36, ptr %3, align 4, !tbaa !43
  %37 = load ptr, ptr %25, align 8, !tbaa !34
  %38 = getelementptr inbounds nuw i8, ptr %37, i64 72
  %39 = load i32, ptr %38, align 8, !tbaa !41
  %40 = getelementptr inbounds nuw i8, ptr %37, i64 76
  %41 = load i32, ptr %40, align 4, !tbaa !42
  %42 = tail call i32 @av_image_check_size(i32 noundef %39, i32 noundef %41, i32 noundef 0, ptr noundef nonnull %0) #3
  %43 = icmp slt i32 %42, 0
  br i1 %43, label %47, label %44

44:                                               ; preds = %23
  %45 = tail call i32 @avio_rb16(ptr noundef nonnull %5) #3
  tail call void @avpriv_set_pts_info(ptr noundef nonnull %16, i32 noundef 64, i32 noundef 1, i32 noundef %45) #3
  %46 = tail call i64 @avio_seek(ptr noundef nonnull %5, i64 noundef 0, i32 noundef 0) #3
  br label %47

47:                                               ; preds = %23, %15, %1, %44, %22, %14
  %.0 = phi i32 [ -1094995529, %14 ], [ -1163346256, %22 ], [ 0, %44 ], [ -5, %1 ], [ -12, %15 ], [ -1094995529, %23 ]
  ret i32 %.0
}